target datalayout = "e-m:e-p270:32:32-p271:32:32-p272:64:64-i64:64-i128:128-f80:128-n8:16:32:64-S128"
target triple = "x86_64-pc-linux-gnu"

%struct.rawSeqStore_t = type { ptr, i64, i64, i64, i64 }
%struct.rawSeq = type { i32, i32, i32 }

; Function Attrs: nounwind uwtable
define dso_local void @ZSTD_ldm_skipRawSeqStoreBytes(ptr noundef %0, i64 noundef %1) #0 {
  %3 = alloca ptr, align 8
  %4 = alloca i64, align 8
  %5 = alloca i32, align 4
  %6 = alloca %struct.rawSeq, align 4
  store ptr %0, ptr %3, align 8
  store i64 %1, ptr %4, align 8
  %7 = load ptr, ptr %3, align 8
  %8 = getelementptr inbounds %struct.rawSeqStore_t, ptr %7, i32 0, i32 2
  %9 = load i64, ptr %8, align 8
  %10 = load i64, ptr %4, align 8
  %11 = add i64 %9, %10
  %12 = trunc i64 %11 to i32
  store i32 %12, ptr %5, align 4
  br label %13

13:                                               ; preds = %58, %2
  %14 = load i32, ptr %5, align 4
  %15 = icmp ne i32 %14, 0
  br i1 %15, label %16, label %24

16:                                               ; preds = %13
  %17 = load ptr, ptr %3, align 8
  %18 = getelementptr inbounds %struct.rawSeqStore_t, ptr %17, i32 0, i32 1
  %19 = load i64, ptr %18, align 8
  %20 = load ptr, ptr %3, align 8
  %21 = getelementptr inbounds %struct.rawSeqStore_t, ptr %20, i32 0, i32 3
  %22 = load i64, ptr %21, align 8
  %23 = icmp ult i64 %19, %22
  br label %24

24:                                               ; preds = %16, %13
  %25 = phi i1 [ false, %13 ], [ %23, %16 ]
  br i1 %25, label %26, label %59

26:                                               ; preds = %24
  %27 = load ptr, ptr %3, align 8
  %28 = getelementptr inbounds %struct.rawSeqStore_t, ptr %27, i32 0, i32 0
  %29 = load ptr, ptr %28, align 8
  %30 = load ptr, ptr %3, align 8
  %31 = getelementptr inbounds %struct.rawSeqStore_t, ptr %30, i32 0, i32 1
  %32 = load i64, ptr %31, align 8
  %33 = getelementptr inbounds %struct.rawSeq, ptr %29, i64 %32
  call void @llvm.memcpy.p0.p0.i64(ptr align 4 %6, ptr align 4 %33, i64 12, i1 false)
  %34 = load i32, ptr %5, align 4
  %35 = getelementptr inbounds %struct.rawSeq, ptr %6, i32 0, i32 1
  %36 = load i32, ptr %35, align 4
  %37 = getelementptr inbounds %struct.rawSeq, ptr %6, i32 0, i32 2
  %38 = load i32, ptr %37, align 4
  %39 = add i32 %36, %38
  %40 = icmp uge i32 %34, %39
  br i1 %40, label %41, label %53

41:                                               ; preds = %26
  %42 = getelementptr inbounds %struct.rawSeq, ptr %6, i32 0, i32 1
  %43 = load i32, ptr %42, align 4
  %44 = getelementptr inbounds %struct.rawSeq, ptr %6, i32 0, i32 2
  %45 = load i32, ptr %44, align 4
  %46 = add i32 %43, %45
  %47 = load i32, ptr %5, align 4
  %48 = sub i32 %47, %46
  store i32 %48, ptr %5, align 4
  %49 = load ptr, ptr %3, align 8
  %50 = getelementptr inbounds %struct.rawSeqStore_t, ptr %49, i32 0, i32 1
  %51 = load i64, ptr %50, align 8
  %52 = add i64 %51, 1
  store i64 %52, ptr %50, align 8
  br label %58

53:                                               ; preds = %26
  %54 = load i32, ptr %5, align 4
  %55 = zext i32 %54 to i64
  %56 = load ptr, ptr %3, align 8
  %57 = getelementptr inbounds %struct.rawSeqStore_t, ptr %56, i32 0, i32 2
  store i64 %55, ptr %57, align 8
  br label %59

58:                                               ; preds = %41
  br label %13, !llvm.loop !17

59:                                               ; preds = %53, %24
  %60 = load i32, ptr %5, align 4
  %61 = icmp eq i32 %60, 0
  br i1 %61, label %70, label %62

62:                                               ; preds = %59
  %63 = load ptr, ptr %3, align 8
  %64 = getelementptr inbounds %struct.rawSeqStore_t, ptr %63, i32 0, i32 1
  %65 = load i64, ptr %64, align 8
  %66 = load ptr, ptr %3, align 8
  %67 = getelementptr inbounds %struct.rawSeqStore_t, ptr %66, i32 0, i32 3
  %68 = load i64, ptr %67, align 8
  %69 = icmp eq i64 %65, %68
  br i1 %69, label %70, label %73

70:                                               ; preds = %62, %59
  %71 = load ptr, ptr %3, align 8
  %72 = getelementptr inbounds %struct.rawSeqStore_t, ptr %71, i32 0, i32 2
  store i64 0, ptr %72, align 8
  br label %73

73:                                               ; preds = %70, %62
  ret void
}