; Function Attrs: nofree norecurse nosync nounwind memory(read, argmem: readwrite, inaccessiblemem: none) uwtable
define dso_local void @ZSTD_ldm_skipRawSeqStoreBytes(ptr noundef captures(none) %0, i64 noundef %1) local_unnamed_addr #6 {
  %3 = getelementptr inbounds nuw i8, ptr %0, i64 16
  %4 = load i64, ptr %3, align 8
  %5 = add i64 %4, %1
  %6 = trunc i64 %5 to i32
  %cond25 = icmp eq i32 %6, 0
  br i1 %cond25, label %.loopexit, label %.lr.ph

.lr.ph:                                           ; preds = %2
  %7 = getelementptr inbounds nuw i8, ptr %0, i64 8
  %8 = getelementptr inbounds nuw i8, ptr %0, i64 24
  %9 = load i64, ptr %8, align 8
  %.promoted = load i64, ptr %7, align 8
  br label %10

10:                                               ; preds = %.lr.ph, %17
  %11 = phi i64 [ %.promoted, %.lr.ph ], [ %19, %17 ]
  %.026 = phi i32 [ %6, %.lr.ph ], [ %18, %17 ]
  %12 = icmp ult i64 %11, %9
  br i1 %12, label %13, label %.critedge

13:                                               ; preds = %10
  %14 = load ptr, ptr %0, align 8
  %15 = getelementptr inbounds %struct.rawSeq, ptr %14, i64 %11
  %.sroa.1.0..sroa_idx = getelementptr inbounds nuw i8, ptr %15, i64 4
  %.sroa.1.0.copyload = load i32, ptr %.sroa.1.0..sroa_idx, align 4
  %.sroa.3.0..sroa_idx = getelementptr inbounds nuw i8, ptr %15, i64 8
  %.sroa.3.0.copyload = load i32, ptr %.sroa.3.0..sroa_idx, align 4
  %16 = add i32 %.sroa.3.0.copyload, %.sroa.1.0.copyload
  %.not19 = icmp ult i32 %.026, %16
  br i1 %.not19, label %20, label %17

17:                                               ; preds = %13
  %18 = sub nuw i32 %.026, %16
  %19 = add nuw i64 %11, 1
  store i64 %19, ptr %7, align 8
  %cond = icmp eq i32 %18, 0
  br i1 %cond, label %.loopexit, label %10, !llvm.loop !19

20:                                               ; preds = %13
  %21 = zext i32 %.026 to i64
  store i64 %21, ptr %3, align 8
  br label %.critedge

.critedge:                                        ; preds = %10, %20
  %22 = icmp eq i64 %11, %9
  br i1 %22, label %.loopexit, label %23

.loopexit:                                        ; preds = %17, %2, %.critedge
  store i64 0, ptr %3, align 8
  br label %23

23:                                               ; preds = %.loopexit, %.critedge
  ret void
}